target datalayout = "e-m:e-p270:32:32-p271:32:32-p272:64:64-i64:64-i128:128-f80:128-n8:16:32:64-S128"
target triple = "x86_64-pc-linux-gnu"

; Function Attrs: mustprogress uwtable
define noundef i32 @_ZN6icu_7717GregorianCalendar14aggregateStampEii(ptr noundef nonnull align 8 dereferenceable(222) %0, i32 noundef %1, i32 noundef %2) #1 align 2 {
  %4 = alloca ptr, align 8
  %5 = alloca i32, align 4
  %6 = alloca i32, align 4
  store ptr %0, ptr %4, align 8, !tbaa !3
  store i32 %1, ptr %5, align 4, !tbaa !31
  store i32 %2, ptr %6, align 4, !tbaa !31
  %7 = load i32, ptr %5, align 4, !tbaa !31
  %8 = icmp ne i32 %7, 0
  br i1 %8, label %9, label %16

9:                                                ; preds = %3
  %10 = load i32, ptr %6, align 4, !tbaa !31
  %11 = icmp ne i32 %10, 0
  br i1 %11, label %12, label %16

12:                                               ; preds = %9
  %13 = load i32, ptr %5, align 4, !tbaa !31
  %14 = load i32, ptr %6, align 4, !tbaa !31
  %15 = call i32 @uprv_max_77(i32 noundef %13, i32 noundef %14)
  br label %17

16:                                               ; preds = %9, %3
  br label %17

17:                                               ; preds = %16, %12
  %18 = phi i32 [ %15, %12 ], [ 0, %16 ]
  ret i32 %18
}