; Function Attrs: mustprogress uwtable
define noundef i32 @_ZN6icu_7717GregorianCalendar14aggregateStampEii(ptr noundef nonnull readnone align 8 captures(none) dereferenceable(222) %0, i32 noundef %1, i32 noundef %2) local_unnamed_addr #1 align 2 {
  %4 = icmp ne i32 %1, 0
  %5 = icmp ne i32 %2, 0
  %or.cond = and i1 %4, %5
  br i1 %or.cond, label %6, label %8

6:                                                ; preds = %3
  %7 = tail call i32 @uprv_max_77(i32 noundef %1, i32 noundef %2)
  br label %8

8:                                                ; preds = %3, %6
  %9 = phi i32 [ %7, %6 ], [ 0, %3 ]
  ret i32 %9
}